# SymbolsHelper-Confirmed: 6.4.2 amd64
libQt6JsonRpc.so.6 libqt6jsonrpc6 #MINVER#, qt6-jsonrpc-abi (= 6.4.2)
* Build-Depends-Packages: qt6-languageserver-dev, qt6-languageserver-private-dev
 _ZN10QTypedJson10jsonRpcLogEv@Base 6.3.0
 _ZN10QTypedJson11JsonBuilder10endElementEi@Base 6.3.0
 (subst)_ZN10QTypedJson11JsonBuilder10endObjectFEPKc6QFlagsINS_12ObjectOptionEE{quintptr}@Base 6.3.0
 _ZN10QTypedJson11JsonBuilder10handleJsonER10QJsonArray@Base 6.3.0
 _ZN10QTypedJson11JsonBuilder10handleJsonER10QJsonValue@Base 6.3.0
 _ZN10QTypedJson11JsonBuilder10handleJsonER11QJsonObject@Base 6.3.0
 _ZN10QTypedJson11JsonBuilder10startFieldEPKc@Base 6.3.0
 _ZN10QTypedJson11JsonBuilder10startFieldERK7QString@Base 6.3.0
 _ZN10QTypedJson11JsonBuilder10startTupleEi@Base 6.3.0
 _ZN10QTypedJson11JsonBuilder11handleBasicERK10QByteArray@Base 6.3.0
 _ZN10QTypedJson11JsonBuilder11handleBasicERKb@Base 6.3.0
 _ZN10QTypedJson11JsonBuilder11handleBasicERKd@Base 6.3.0
 _ZN10QTypedJson11JsonBuilder11handleBasicERKi@Base 6.3.0
 _ZN10QTypedJson11JsonBuilder11startArrayFERi@Base 6.3.0
 _ZN10QTypedJson11JsonBuilder12popLastValueEv@Base 6.3.0
 _ZN10QTypedJson11JsonBuilder12startElementEi@Base 6.3.0
 (subst)_ZN10QTypedJson11JsonBuilder12startObjectFEPKc6QFlagsINS_12ObjectOptionEE{quintptr}@Base 6.3.0
 _ZN10QTypedJson11JsonBuilder14handleNullTypeEv@Base 6.3.0
 _ZN10QTypedJson11JsonBuilder21handleMissingOptionalEv@Base 6.3.0
 _ZN10QTypedJson11JsonBuilder8endFieldEPKc@Base 6.3.0
 _ZN10QTypedJson11JsonBuilder8endFieldERK7QString@Base 6.3.0
 _ZN10QTypedJson11JsonBuilder8endTupleEi@Base 6.3.0
 _ZN10QTypedJson11JsonBuilder9endArrayFERi@Base 6.3.0
 _ZN10QTypedJson6Reader10endElementEi@Base 6.3.0
 (subst)_ZN10QTypedJson6Reader10endObjectFEPKc6QFlagsINS_12ObjectOptionEE{quintptr}@Base 6.3.0
 _ZN10QTypedJson6Reader10handleJsonER10QJsonArray@Base 6.3.0
 _ZN10QTypedJson6Reader10handleJsonER10QJsonValue@Base 6.3.0
 _ZN10QTypedJson6Reader10handleJsonER11QJsonObject@Base 6.3.0
 _ZN10QTypedJson6Reader10startFieldEPKc@Base 6.3.0
 _ZN10QTypedJson6Reader10startFieldERK7QString@Base 6.3.0
 _ZN10QTypedJson6Reader10startTupleEi@Base 6.3.0
 _ZN10QTypedJson6Reader11handleBasicER10QByteArray@Base 6.3.0
 _ZN10QTypedJson6Reader11handleBasicERb@Base 6.3.0
 _ZN10QTypedJson6Reader11handleBasicERd@Base 6.3.0
 _ZN10QTypedJson6Reader11handleBasicERi@Base 6.3.0
 _ZN10QTypedJson6Reader11startArrayFERi@Base 6.3.0
 _ZN10QTypedJson6Reader11warnMissingE11QStringView@Base 6.3.0
 _ZN10QTypedJson6Reader11warnNonNullEv@Base 6.3.0
 _ZN10QTypedJson6Reader12startElementEi@Base 6.3.0
 (subst)_ZN10QTypedJson6Reader12startObjectFEPKc6QFlagsINS_12ObjectOptionEE{quintptr}@Base 6.3.0
 _ZN10QTypedJson6Reader13errorMessagesEv@Base 6.3.0
 _ZN10QTypedJson6Reader14handleNullTypeEv@Base 6.3.0
 _ZN10QTypedJson6Reader15warnInvalidSizeEii@Base 6.3.0
 _ZN10QTypedJson6Reader18clearErrorMessagesEv@Base 6.3.0
 _ZN10QTypedJson6Reader4warnERK7QString@Base 6.3.0
 _ZN10QTypedJson6Reader8endFieldEPKc@Base 6.3.0
 _ZN10QTypedJson6Reader8endFieldERK7QString@Base 6.3.0
 _ZN10QTypedJson6Reader8endTupleEi@Base 6.3.0
 _ZN10QTypedJson6Reader9endArrayFERi@Base 6.3.0
 _ZN10QTypedJson6Reader9warnExtraERK11QJsonObject@Base 6.3.0
 _ZN10QTypedJson6ReaderC1ERK10QJsonValue@Base 6.3.0
 _ZN10QTypedJson6ReaderC2ERK10QJsonValue@Base 6.3.0
 _ZN10QTypedJson6ReaderD1Ev@Base 6.3.0
 _ZN10QTypedJson6ReaderD2Ev@Base 6.3.0
 _ZN16QJsonRpcProtocol11sendRequestERKNS_7RequestERKSt8functionIFvRKNS_8ResponseEEE@Base 6.3.0
 _ZN16QJsonRpcProtocol12setTransportEP17QJsonRpcTransport@Base 6.3.0
 _ZN16QJsonRpcProtocol14MessageHandler13handleRequestERKNS_7RequestERKSt8functionIFvRKNS_8ResponseEEE@Base 6.3.0
 _ZN16QJsonRpcProtocol14MessageHandler18handleNotificationERKNS_12NotificationE@Base 6.3.0
 _ZN16QJsonRpcProtocol14MessageHandler5errorENS_9ErrorCodeE@Base 6.3.0
 _ZN16QJsonRpcProtocol14MessageHandler5errorEiRK7QStringRK10QJsonValue@Base 6.3.0
 _ZN16QJsonRpcProtocol14MessageHandler6resultERK10QJsonValue@Base 6.3.0
 _ZN16QJsonRpcProtocol14MessageHandlerC1Ev@Base 6.3.0
 _ZN16QJsonRpcProtocol14MessageHandlerC2Ev@Base 6.3.0
 _ZN16QJsonRpcProtocol14MessageHandlerD0Ev@Base 6.3.0
 _ZN16QJsonRpcProtocol14MessageHandlerD1Ev@Base 6.3.0
 _ZN16QJsonRpcProtocol14MessageHandlerD2Ev@Base 6.3.0
 _ZN16QJsonRpcProtocol16sendNotificationERKNS_12NotificationE@Base 6.3.0
 _ZN16QJsonRpcProtocol17setMessageHandlerERK7QStringPNS_14MessageHandlerE@Base 6.3.0
 _ZN16QJsonRpcProtocol23setProtocolErrorHandlerERKSt8functionIFvRKNS_8ResponseEEE@Base 6.3.0
 _ZN16QJsonRpcProtocol24setDefaultMessageHandlerEPNS_14MessageHandlerE@Base 6.3.0
 _ZN16QJsonRpcProtocol25setInvalidResponseHandlerERKSt8functionIFvRKNS_8ResponseEEE@Base 6.3.0
 _ZN16QJsonRpcProtocol26installMessagePreprocessorERKSt8functionIFNS_10ProcessingERK13QJsonDocumentRK15QJsonParseErrorRKS0_IFvRKNS_8ResponseEEEEE@Base 6.3.0
 _ZN16QJsonRpcProtocol5Batch10addRequestERKNS_7RequestE@Base 6.3.0
 _ZN16QJsonRpcProtocol5Batch15addNotificationERKNS_12NotificationE@Base 6.3.0
 _ZN16QJsonRpcProtocol5BatchC1EOS0_@Base 6.3.0
 _ZN16QJsonRpcProtocol5BatchC1Ev@Base 6.3.0
 _ZN16QJsonRpcProtocol5BatchC2EOS0_@Base 6.3.0
 _ZN16QJsonRpcProtocol5BatchC2Ev@Base 6.3.0
 _ZN16QJsonRpcProtocol5BatchD1Ev@Base 6.3.0
 _ZN16QJsonRpcProtocol5BatchD2Ev@Base 6.3.0
 _ZN16QJsonRpcProtocol5BatchaSEOS0_@Base 6.3.0
 _ZN16QJsonRpcProtocol9sendBatchEONS_5BatchERKSt8functionIFvRKNS_8ResponseEEE@Base 6.3.0
 _ZN16QJsonRpcProtocolC1EOS_@Base 6.3.0
 _ZN16QJsonRpcProtocolC1Ev@Base 6.3.0
 _ZN16QJsonRpcProtocolC2EOS_@Base 6.3.0
 _ZN16QJsonRpcProtocolC2Ev@Base 6.3.0
 _ZN16QJsonRpcProtocolD1Ev@Base 6.3.0
 _ZN16QJsonRpcProtocolD2Ev@Base 6.3.0
 _ZN16QJsonRpcProtocolaSEOS_@Base 6.3.0
 _ZN24QHttpMessageStreamParser10receiveEofEv@Base 6.3.0
 _ZN24QHttpMessageStreamParser11callHasBodyEv@Base 6.3.0
 _ZN24QHttpMessageStreamParser11receiveDataE10QByteArray@Base 6.3.0
 _ZN24QHttpMessageStreamParser12errorMessageE9QtMsgType7QString@Base 6.3.0
 _ZN24QHttpMessageStreamParser13callHasHeaderEv@Base 6.3.0
 (optional=templinst)_ZN24QHttpMessageStreamParserC1ESt8functionIFvRK10QByteArrayS3_EES0_IFvS3_EES0_IFv9QtMsgType7QStringEENS_4ModeE@Base 6.4.0
 (optional=templinst)_ZN24QHttpMessageStreamParserC2ESt8functionIFvRK10QByteArrayS3_EES0_IFvS3_EES0_IFv9QtMsgType7QStringEENS_4ModeE@Base 6.4.0
 _ZN8QJsonRpc13TypedResponse16addOnCloseActionERKSt8functionIFvNS0_6StatusERKSt7variantIJi10QByteArrayEERNS_8TypedRpcEEE@Base 6.3.0
 _ZN8QJsonRpc13TypedResponse16doOnCloseActionsEv@Base 6.3.0
 _ZN8QJsonRpc13TypedResponse17sendErrorResponseEiRK10QByteArray@Base 6.3.0
 _ZN8QJsonRpc8TypedRpc13onCloseActionEv@Base 6.3.0
 _ZN8QJsonRpc8TypedRpc15doOnCloseActionENS_13TypedResponse6StatusERKSt7variantIJi10QByteArrayEE@Base 6.3.0
 _ZN8QJsonRpc8TypedRpc20installOnCloseActionERKSt8functionIFvNS_13TypedResponse6StatusERKSt7variantIJi10QByteArrayEERS0_EE@Base 6.3.0
 _ZNK10QTypedJson6Reader11currentPathEv@Base 6.3.0
 _ZNK10QTypedJson6Reader14getExtraFieldsEv@Base 6.3.0
 _ZNK16QJsonRpcProtocol14messageHandlerERK7QString@Base 6.3.0
 _ZNK16QJsonRpcProtocol19messagePreprocessorEv@Base 6.3.0
 _ZNK16QJsonRpcProtocol20protocolErrorHandlerEv@Base 6.3.0
 _ZNK16QJsonRpcProtocol21defaultMessageHandlerEv@Base 6.3.0
 _ZNK16QJsonRpcProtocol22invalidResponseHandlerEv@Base 6.3.0
 _ZTIN16QJsonRpcProtocol14MessageHandlerE@Base 6.3.0
 _ZTSN16QJsonRpcProtocol14MessageHandlerE@Base 6.3.0
 _ZTVN16QJsonRpcProtocol14MessageHandlerE@Base 6.3.0
